; Function Attrs: mustprogress uwtable
define void @_ZNK6duckdb23ParquetEncryptionConfig9SerializeERNS_10SerializerE(ptr noundef nonnull align 8 dereferenceable(96) %0, ptr noundef nonnull align 8 dereferenceable(680) %1) local_unnamed_addr #3 align 2 {
  %3 = getelementptr inbounds nuw i8, ptr %1, i64 9
  %4 = load i8, ptr %3, align 1, !tbaa !3, !range !79, !noundef !80
  %5 = trunc nuw i8 %4 to i1
  %6 = getelementptr inbounds nuw i8, ptr %0, i64 16
  %7 = load i64, ptr %6, align 8
  %8 = icmp ne i64 %7, 0
  %or.cond.not.i = select i1 %5, i1 true, i1 %8
  %9 = load ptr, ptr %1, align 8, !tbaa !83
  %10 = getelementptr inbounds nuw i8, ptr %9, i64 32
  %11 = load ptr, ptr %10, align 8
  br i1 %or.cond.not.i, label %13, label %12

12:                                               ; preds = %2
  tail call void %11(ptr noundef nonnull align 8 dereferenceable(680) %1, i16 noundef zeroext 100, ptr noundef nonnull @.str.8, i1 noundef zeroext false)
  br label %_ZN6duckdb10Serializer24WritePropertyWithDefaultINSt7__cxx1112basic_stringIcSt11char_traitsIcESaIcEEEEEvtPKcRKT_.exit

13:                                               ; preds = %2
  %14 = getelementptr inbounds nuw i8, ptr %0, i64 8
  tail call void %11(ptr noundef nonnull align 8 dereferenceable(680) %1, i16 noundef zeroext 100, ptr noundef nonnull @.str.8, i1 noundef zeroext true)
  %15 = load ptr, ptr %1, align 8, !tbaa !83
  %16 = getelementptr inbounds nuw i8, ptr %15, i64 224
  %17 = load ptr, ptr %16, align 8
  tail call void %17(ptr noundef nonnull align 8 dereferenceable(680) %1, ptr noundef nonnull align 8 dereferenceable(32) %14)
  br label %_ZN6duckdb10Serializer24WritePropertyWithDefaultINSt7__cxx1112basic_stringIcSt11char_traitsIcESaIcEEEEEvtPKcRKT_.exit

_ZN6duckdb10Serializer24WritePropertyWithDefaultINSt7__cxx1112basic_stringIcSt11char_traitsIcESaIcEEEEEvtPKcRKT_.exit: ; preds = %12, %13
  %18 = load ptr, ptr %1, align 8, !tbaa !83
  %19 = getelementptr inbounds nuw i8, ptr %18, i64 40
  %20 = load ptr, ptr %19, align 8
  tail call void %20(ptr noundef nonnull align 8 dereferenceable(680) %1, i1 noundef zeroext %or.cond.not.i)
  %21 = getelementptr inbounds nuw i8, ptr %0, i64 40
  tail call void @_ZN6duckdb10Serializer24WritePropertyWithDefaultISt13unordered_mapINSt7__cxx1112basic_stringIcSt11char_traitsIcESaIcEEES8_St4hashIS8_ESt8equal_toIS8_ESaISt4pairIKS8_S8_EEEEEvtPKcRKT_(ptr noundef nonnull align 8 dereferenceable(680) %1, i16 noundef zeroext 101, ptr noundef nonnull @.str.9, ptr noundef nonnull align 8 dereferenceable(56) %21)
  ret void
}